target datalayout = "e-m:e-p270:32:32-p271:32:32-p272:64:64-i64:64-i128:128-f80:128-n8:16:32:64-S128"
target triple = "x86_64-pc-linux-gnu"

%"class.Ipopt::StdInterfaceTNLP" = type { %"class.Ipopt::TNLP.base", %"class.Ipopt::SmartPtr", i32, i32, ptr, ptr, ptr, ptr, i32, i32, i32, ptr, ptr, ptr, ptr, ptr, ptr, ptr, ptr, ptr, ptr, ptr, double, ptr, ptr, ptr, ptr, ptr, ptr, ptr, ptr, ptr, ptr, ptr }
%"class.Ipopt::TNLP.base" = type { %"class.Ipopt::ReferencedObject.base" }
%"class.Ipopt::ReferencedObject.base" = type <{ ptr, i32 }>
%"class.Ipopt::SmartPtr" = type { ptr }

; Function Attrs: mustprogress uwtable
define noundef zeroext i1 @_ZN5Ipopt16StdInterfaceTNLP15get_bounds_infoEiPdS1_iS1_S1_(ptr noundef nonnull align 8 dereferenceable(264) %0, i32 noundef %1, ptr noundef %2, ptr noundef %3, i32 noundef %4, ptr noundef %5, ptr noundef %6) unnamed_addr #0 align 2 {
  %8 = alloca ptr, align 8
  %9 = alloca i32, align 4
  %10 = alloca ptr, align 8
  %11 = alloca ptr, align 8
  %12 = alloca i32, align 4
  %13 = alloca ptr, align 8
  %14 = alloca ptr, align 8
  store ptr %0, ptr %8, align 8
  store i32 %1, ptr %9, align 4
  store ptr %2, ptr %10, align 8
  store ptr %3, ptr %11, align 8
  store i32 %4, ptr %12, align 4
  store ptr %5, ptr %13, align 8
  store ptr %6, ptr %14, align 8
  %15 = load ptr, ptr %8, align 8
  %16 = load i32, ptr %9, align 4
  %17 = getelementptr inbounds %"class.Ipopt::StdInterfaceTNLP", ptr %15, i32 0, i32 4
  %18 = load ptr, ptr %17, align 8
  %19 = load ptr, ptr %10, align 8
  call void @_ZN5Ipopt10IpBlasCopyEiPKdiPdi(i32 noundef %16, ptr noundef %18, i32 noundef 1, ptr noundef %19, i32 noundef 1)
  %20 = load i32, ptr %9, align 4
  %21 = getelementptr inbounds %"class.Ipopt::StdInterfaceTNLP", ptr %15, i32 0, i32 5
  %22 = load ptr, ptr %21, align 8
  %23 = load ptr, ptr %11, align 8
  call void @_ZN5Ipopt10IpBlasCopyEiPKdiPdi(i32 noundef %20, ptr noundef %22, i32 noundef 1, ptr noundef %23, i32 noundef 1)
  %24 = load i32, ptr %12, align 4
  %25 = getelementptr inbounds %"class.Ipopt::StdInterfaceTNLP", ptr %15, i32 0, i32 6
  %26 = load ptr, ptr %25, align 8
  %27 = load ptr, ptr %13, align 8
  call void @_ZN5Ipopt10IpBlasCopyEiPKdiPdi(i32 noundef %24, ptr noundef %26, i32 noundef 1, ptr noundef %27, i32 noundef 1)
  %28 = load i32, ptr %12, align 4
  %29 = getelementptr inbounds %"class.Ipopt::StdInterfaceTNLP", ptr %15, i32 0, i32 7
  %30 = load ptr, ptr %29, align 8
  %31 = load ptr, ptr %14, align 8
  call void @_ZN5Ipopt10IpBlasCopyEiPKdiPdi(i32 noundef %28, ptr noundef %30, i32 noundef 1, ptr noundef %31, i32 noundef 1)
  ret i1 true
}