; Function Attrs: mustprogress uwtable
define noundef zeroext i1 @_ZN5Ipopt16StdInterfaceTNLP15get_bounds_infoEiPdS1_iS1_S1_(ptr nocapture noundef nonnull readonly align 8 dereferenceable(264) %0, i32 noundef %1, ptr noundef %2, ptr noundef %3, i32 noundef %4, ptr noundef %5, ptr noundef %6) unnamed_addr #0 align 2 {
  %8 = getelementptr inbounds i8, ptr %0, i64 32
  %9 = load ptr, ptr %8, align 8
  tail call void @_ZN5Ipopt10IpBlasCopyEiPKdiPdi(i32 noundef %1, ptr noundef %9, i32 noundef 1, ptr noundef %2, i32 noundef 1)
  %10 = getelementptr inbounds i8, ptr %0, i64 40
  %11 = load ptr, ptr %10, align 8
  tail call void @_ZN5Ipopt10IpBlasCopyEiPKdiPdi(i32 noundef %1, ptr noundef %11, i32 noundef 1, ptr noundef %3, i32 noundef 1)
  %12 = getelementptr inbounds i8, ptr %0, i64 48
  %13 = load ptr, ptr %12, align 8
  tail call void @_ZN5Ipopt10IpBlasCopyEiPKdiPdi(i32 noundef %4, ptr noundef %13, i32 noundef 1, ptr noundef %5, i32 noundef 1)
  %14 = getelementptr inbounds i8, ptr %0, i64 56
  %15 = load ptr, ptr %14, align 8
  tail call void @_ZN5Ipopt10IpBlasCopyEiPKdiPdi(i32 noundef %4, ptr noundef %15, i32 noundef 1, ptr noundef %6, i32 noundef 1)
  ret i1 true
}